target datalayout = "e-m:e-p270:32:32-p271:32:32-p272:64:64-i64:64-i128:128-f80:128-n8:16:32:64-S128"
target triple = "x86_64-pc-linux-gnu"

%struct.ssl_connection_st = type { %struct.ssl_st, ptr, i32, ptr, ptr, ptr, i32, ptr, i32, i32, i32, i32, %struct.OSSL_TIME, %struct.OSSL_TIME, %struct.ossl_statem_st, i32, ptr, ptr, i64, i64, i64, %struct.ossl_quic_tls_callbacks_st, ptr, ptr, %struct.anon, ptr, ptr, ptr, i32, ptr, %struct.ssl_dane_st, ptr, ptr, ptr, ptr, i32, [64 x i8], [64 x i8], [64 x i8], [64 x i8], [64 x i8], [64 x i8], [64 x i8], [64 x i8], [64 x i8], [64 x i8], [64 x i8], [64 x i8], ptr, [64 x i8], i64, i32, i64, [32 x i8], ptr, ptr, ptr, i64, ptr, [32 x i8], i64, i32, ptr, ptr, i32, i32, ptr, ptr, ptr, ptr, ptr, i64, ptr, ptr, i64, i32, i32, i32, i64, i32, i32, i64, i64, i64, %struct.anon.1, ptr, i32, ptr, ptr, ptr, i32, ptr, ptr, ptr, i32, i32, i32, i32, ptr, i64, i32, ptr, %struct.srp_ctx_st, ptr, %struct.record_layer_st, ptr, ptr, ptr, ptr, i64, i32, i32, i32, i64, i64, i64, ptr, ptr, ptr, ptr, ptr, i64, ptr, i64, ptr, i64 }
%struct.ssl_st = type { i32, ptr, ptr, ptr, %struct.CRYPTO_REF_COUNT, ptr, %struct.crypto_ex_data_st }
%struct.CRYPTO_REF_COUNT = type { i32 }
%struct.crypto_ex_data_st = type { ptr, ptr }
%struct.OSSL_TIME = type { i64 }
%struct.ossl_statem_st = type { i32, i32, i32, i32, i32, i32, i32, i32, i32, i32, i32, i32, i32, ptr, ptr, ptr, i8 }
%struct.ossl_quic_tls_callbacks_st = type { ptr, ptr, ptr, ptr, ptr, ptr }
%struct.anon = type { i64, [32 x i8], [32 x i8], ptr, ptr, i32, i32, i32, i32, [2 x i8], i32, i32, i32, i32, %struct.anon.0, [64 x i8], i64, [64 x i8], i64, i32, i32, ptr, i64, ptr, i64, i32, i8, i8, i16, ptr, i16 }
%struct.anon.0 = type { [128 x i8], i64, [128 x i8], i64, i64, i32, ptr, ptr, [4 x ptr], [4 x i16], i64, i32, ptr, i64, ptr, i64, ptr, ptr, ptr, i32, i64, ptr, i32, ptr, i64, ptr, i64, ptr, i64, ptr, ptr, ptr, ptr, i64, i64, ptr, ptr, i32, i32, i32, i32 }
%struct.ssl_dane_st = type { ptr, ptr, ptr, ptr, ptr, i32, i32, i32, i64 }
%struct.anon.1 = type { [29 x i8], ptr, ptr, ptr, i32, ptr, i16, i32, %struct.anon.2, i32, i32, i64, ptr, i64, ptr, i64, ptr, i64, ptr, i64, ptr, i64, ptr, ptr, ptr, ptr, ptr, ptr, ptr, i64, ptr, i64, i32, i32, i32, i32, ptr, i64, i32, i8, i32, [4 x i32], i32, i8, i8, i8, i8 }
%struct.anon.2 = type { ptr, ptr, ptr, i64 }
%struct.srp_ctx_st = type { ptr, ptr, ptr, ptr, ptr, ptr, ptr, ptr, ptr, ptr, ptr, ptr, ptr, ptr, i32, i64 }
%struct.record_layer_st = type { ptr, ptr, ptr, ptr, ptr, ptr, ptr, ptr, i64, i32, i64, [4 x i8], i64, i64, i8, ptr, i32, ptr, ptr, ptr, i64, i64, i64, i64, [32 x %struct.tls_record_st] }
%struct.tls_record_st = type { ptr, i32, i8, ptr, ptr, i64, i64, i16, [8 x i8] }
%struct.ssl_method_st = type { i32, i32, i64, ptr, ptr, ptr, ptr, ptr, ptr, ptr, ptr, ptr, ptr, ptr, ptr, ptr, ptr, ptr, ptr, ptr, ptr, ptr, ptr, ptr, ptr, ptr, ptr, ptr, ptr, ptr, ptr, ptr }

; Function Attrs: nounwind uwtable
define i32 @ssl3_renegotiate_check(ptr noundef %0, i32 noundef %1) #0 {
  %3 = alloca i32, align 4
  %4 = alloca ptr, align 8
  %5 = alloca i32, align 4
  %6 = alloca i32, align 4
  %7 = alloca ptr, align 8
  %8 = alloca i32, align 4
  store ptr %0, ptr %4, align 8, !tbaa !23
  store i32 %1, ptr %5, align 4, !tbaa !18
  call void @llvm.lifetime.start.p0(i64 4, ptr %6) #10
  store i32 0, ptr %6, align 4, !tbaa !18
  call void @llvm.lifetime.start.p0(i64 8, ptr %7) #10
  %9 = load ptr, ptr %4, align 8, !tbaa !23
  %10 = icmp eq ptr %9, null
  br i1 %10, label %11, label %12

11:                                               ; preds = %2
  br label %22

12:                                               ; preds = %2
  %13 = load ptr, ptr %4, align 8, !tbaa !23
  %14 = getelementptr inbounds nuw %struct.ssl_st, ptr %13, i32 0, i32 0
  %15 = load i32, ptr %14, align 8, !tbaa !25
  %16 = icmp eq i32 %15, 0
  br i1 %16, label %17, label %19

17:                                               ; preds = %12
  %18 = load ptr, ptr %4, align 8, !tbaa !23
  br label %20

19:                                               ; preds = %12
  br label %20

20:                                               ; preds = %19, %17
  %21 = phi ptr [ %18, %17 ], [ null, %19 ]
  br label %22

22:                                               ; preds = %20, %11
  %23 = phi ptr [ null, %11 ], [ %21, %20 ]
  store ptr %23, ptr %7, align 8, !tbaa !13
  %24 = load ptr, ptr %7, align 8, !tbaa !13
  %25 = icmp eq ptr %24, null
  br i1 %25, label %26, label %27

26:                                               ; preds = %22
  store i32 0, ptr %3, align 4
  store i32 1, ptr %8, align 4
  br label %68

27:                                               ; preds = %22
  %28 = load ptr, ptr %7, align 8, !tbaa !13
  %29 = getelementptr inbounds nuw %struct.ssl_connection_st, ptr %28, i32 0, i32 24
  %30 = getelementptr inbounds nuw %struct.anon, ptr %29, i32 0, i32 10
  %31 = load i32, ptr %30, align 4, !tbaa !252
  %32 = icmp ne i32 %31, 0
  br i1 %32, label %33, label %66

33:                                               ; preds = %27
  %34 = load ptr, ptr %7, align 8, !tbaa !13
  %35 = getelementptr inbounds nuw %struct.ssl_connection_st, ptr %34, i32 0, i32 104
  %36 = call i32 @RECORD_LAYER_read_pending(ptr noundef %35)
  %37 = icmp ne i32 %36, 0
  br i1 %37, label %65, label %38

38:                                               ; preds = %33
  %39 = load ptr, ptr %7, align 8, !tbaa !13
  %40 = getelementptr inbounds nuw %struct.ssl_connection_st, ptr %39, i32 0, i32 104
  %41 = call i32 @RECORD_LAYER_write_pending(ptr noundef %40)
  %42 = icmp ne i32 %41, 0
  br i1 %42, label %65, label %43

43:                                               ; preds = %38
  %44 = load i32, ptr %5, align 4, !tbaa !18
  %45 = icmp ne i32 %44, 0
  br i1 %45, label %50, label %46

46:                                               ; preds = %43
  %47 = load ptr, ptr %4, align 8, !tbaa !23
  %48 = call i32 @SSL_in_init(ptr noundef %47)
  %49 = icmp ne i32 %48, 0
  br i1 %49, label %65, label %50

50:                                               ; preds = %46, %43
  %51 = load ptr, ptr %7, align 8, !tbaa !13
  call void @ossl_statem_set_renegotiate(ptr noundef %51)
  %52 = load ptr, ptr %7, align 8, !tbaa !13
  %53 = getelementptr inbounds nuw %struct.ssl_connection_st, ptr %52, i32 0, i32 24
  %54 = getelementptr inbounds nuw %struct.anon, ptr %53, i32 0, i32 10
  store i32 0, ptr %54, align 4, !tbaa !252
  %55 = load ptr, ptr %7, align 8, !tbaa !13
  %56 = getelementptr inbounds nuw %struct.ssl_connection_st, ptr %55, i32 0, i32 24
  %57 = getelementptr inbounds nuw %struct.anon, ptr %56, i32 0, i32 12
  %58 = load i32, ptr %57, align 4, !tbaa !111
  %59 = add nsw i32 %58, 1
  store i32 %59, ptr %57, align 4, !tbaa !111
  %60 = load ptr, ptr %7, align 8, !tbaa !13
  %61 = getelementptr inbounds nuw %struct.ssl_connection_st, ptr %60, i32 0, i32 24
  %62 = getelementptr inbounds nuw %struct.anon, ptr %61, i32 0, i32 11
  %63 = load i32, ptr %62, align 8, !tbaa !112
  %64 = add nsw i32 %63, 1
  store i32 %64, ptr %62, align 8, !tbaa !112
  store i32 1, ptr %6, align 4, !tbaa !18
  br label %65

65:                                               ; preds = %50, %46, %38, %33
  br label %66

66:                                               ; preds = %65, %27
  %67 = load i32, ptr %6, align 4, !tbaa !18
  store i32 %67, ptr %3, align 4
  store i32 1, ptr %8, align 4
  br label %68

68:                                               ; preds = %66, %26
  call void @llvm.lifetime.end.p0(i64 8, ptr %7) #10
  call void @llvm.lifetime.end.p0(i64 4, ptr %6) #10
  %69 = load i32, ptr %3, align 4
  ret i32 %69
}

; Function Attrs: nounwind uwtable
define internal i32 @ssl3_read_internal(ptr noundef %0, ptr noundef %1, i64 noundef %2, i32 noundef %3, ptr noundef %4) #0 {
  %6 = alloca i32, align 4
  %7 = alloca ptr, align 8
  %8 = alloca ptr, align 8
  %9 = alloca i64, align 8
  %10 = alloca i32, align 4
  %11 = alloca ptr, align 8
  %12 = alloca i32, align 4
  %13 = alloca ptr, align 8
  %14 = alloca i32, align 4
  store ptr %0, ptr %7, align 8, !tbaa !23
  store ptr %1, ptr %8, align 8, !tbaa !3
  store i64 %2, ptr %9, align 8, !tbaa !16
  store i32 %3, ptr %10, align 4, !tbaa !18
  store ptr %4, ptr %11, align 8, !tbaa !218
  call void @llvm.lifetime.start.p0(i64 4, ptr %12) #10
  call void @llvm.lifetime.start.p0(i64 8, ptr %13) #10
  %15 = load ptr, ptr %7, align 8, !tbaa !23
  %16 = icmp eq ptr %15, null
  br i1 %16, label %17, label %18

17:                                               ; preds = %5
  br label %28

18:                                               ; preds = %5
  %19 = load ptr, ptr %7, align 8, !tbaa !23
  %20 = getelementptr inbounds nuw %struct.ssl_st, ptr %19, i32 0, i32 0
  %21 = load i32, ptr %20, align 8, !tbaa !25
  %22 = icmp eq i32 %21, 0
  br i1 %22, label %23, label %25

23:                                               ; preds = %18
  %24 = load ptr, ptr %7, align 8, !tbaa !23
  br label %26

25:                                               ; preds = %18
  br label %26

26:                                               ; preds = %25, %23
  %27 = phi ptr [ %24, %23 ], [ null, %25 ]
  br label %28

28:                                               ; preds = %26, %17
  %29 = phi ptr [ null, %17 ], [ %27, %26 ]
  store ptr %29, ptr %13, align 8, !tbaa !13
  %30 = load ptr, ptr %13, align 8, !tbaa !13
  %31 = icmp eq ptr %30, null
  br i1 %31, label %32, label %33

32:                                               ; preds = %28
  store i32 0, ptr %6, align 4
  store i32 1, ptr %14, align 4
  br label %86

33:                                               ; preds = %28
  %34 = call ptr @__errno_location() #12
  store i32 0, ptr %34, align 4, !tbaa !18
  %35 = load ptr, ptr %13, align 8, !tbaa !13
  %36 = getelementptr inbounds nuw %struct.ssl_connection_st, ptr %35, i32 0, i32 24
  %37 = getelementptr inbounds nuw %struct.anon, ptr %36, i32 0, i32 10
  %38 = load i32, ptr %37, align 4, !tbaa !252
  %39 = icmp ne i32 %38, 0
  br i1 %39, label %40, label %43

40:                                               ; preds = %33
  %41 = load ptr, ptr %7, align 8, !tbaa !23
  %42 = call i32 @ssl3_renegotiate_check(ptr noundef %41, i32 noundef 0)
  br label %43

43:                                               ; preds = %40, %33
  %44 = load ptr, ptr %13, align 8, !tbaa !13
  %45 = getelementptr inbounds nuw %struct.ssl_connection_st, ptr %44, i32 0, i32 24
  %46 = getelementptr inbounds nuw %struct.anon, ptr %45, i32 0, i32 13
  store i32 1, ptr %46, align 8, !tbaa !254
  %47 = load ptr, ptr %7, align 8, !tbaa !23
  %48 = getelementptr inbounds nuw %struct.ssl_st, ptr %47, i32 0, i32 3
  %49 = load ptr, ptr %48, align 8, !tbaa !33
  %50 = getelementptr inbounds nuw %struct.ssl_method_st, ptr %49, i32 0, i32 17
  %51 = load ptr, ptr %50, align 8, !tbaa !251
  %52 = load ptr, ptr %7, align 8, !tbaa !23
  %53 = load ptr, ptr %8, align 8, !tbaa !3
  %54 = load i64, ptr %9, align 8, !tbaa !16
  %55 = load i32, ptr %10, align 4, !tbaa !18
  %56 = load ptr, ptr %11, align 8, !tbaa !218
  %57 = call i32 %51(ptr noundef %52, i8 noundef zeroext 23, ptr noundef null, ptr noundef %53, i64 noundef %54, i32 noundef %55, ptr noundef %56)
  store i32 %57, ptr %12, align 4, !tbaa !18
  %58 = load i32, ptr %12, align 4, !tbaa !18
  %59 = icmp eq i32 %58, -1
  br i1 %59, label %60, label %80

60:                                               ; preds = %43
  %61 = load ptr, ptr %13, align 8, !tbaa !13
  %62 = getelementptr inbounds nuw %struct.ssl_connection_st, ptr %61, i32 0, i32 24
  %63 = getelementptr inbounds nuw %struct.anon, ptr %62, i32 0, i32 13
  %64 = load i32, ptr %63, align 8, !tbaa !254
  %65 = icmp eq i32 %64, 2
  br i1 %65, label %66, label %80

66:                                               ; preds = %60
  %67 = load ptr, ptr %13, align 8, !tbaa !13
  call void @ossl_statem_set_in_handshake(ptr noundef %67, i32 noundef 1)
  %68 = load ptr, ptr %7, align 8, !tbaa !23
  %69 = getelementptr inbounds nuw %struct.ssl_st, ptr %68, i32 0, i32 3
  %70 = load ptr, ptr %69, align 8, !tbaa !33
  %71 = getelementptr inbounds nuw %struct.ssl_method_st, ptr %70, i32 0, i32 17
  %72 = load ptr, ptr %71, align 8, !tbaa !251
  %73 = load ptr, ptr %7, align 8, !tbaa !23
  %74 = load ptr, ptr %8, align 8, !tbaa !3
  %75 = load i64, ptr %9, align 8, !tbaa !16
  %76 = load i32, ptr %10, align 4, !tbaa !18
  %77 = load ptr, ptr %11, align 8, !tbaa !218
  %78 = call i32 %72(ptr noundef %73, i8 noundef zeroext 23, ptr noundef null, ptr noundef %74, i64 noundef %75, i32 noundef %76, ptr noundef %77)
  store i32 %78, ptr %12, align 4, !tbaa !18
  %79 = load ptr, ptr %13, align 8, !tbaa !13
  call void @ossl_statem_set_in_handshake(ptr noundef %79, i32 noundef 0)
  br label %84

80:                                               ; preds = %60, %43
  %81 = load ptr, ptr %13, align 8, !tbaa !13
  %82 = getelementptr inbounds nuw %struct.ssl_connection_st, ptr %81, i32 0, i32 24
  %83 = getelementptr inbounds nuw %struct.anon, ptr %82, i32 0, i32 13
  store i32 0, ptr %83, align 8, !tbaa !254
  br label %84

84:                                               ; preds = %80, %66
  %85 = load i32, ptr %12, align 4, !tbaa !18
  store i32 %85, ptr %6, align 4
  store i32 1, ptr %14, align 4
  br label %86

86:                                               ; preds = %84, %32
  call void @llvm.lifetime.end.p0(i64 8, ptr %13) #10
  call void @llvm.lifetime.end.p0(i64 4, ptr %12) #10
  %87 = load i32, ptr %6, align 4
  ret i32 %87
}