; Function Attrs: nounwind uwtable
define internal fastcc i32 @ssl3_read_internal(ptr noundef %0, ptr noundef %1, i64 noundef %2, i32 noundef range(i32 0, 2) %3, ptr noundef %4) unnamed_addr #4 {
  %6 = icmp eq ptr %0, null
  br i1 %6, label %.thread, label %7

7:                                                ; preds = %5
  %8 = load i32, ptr %0, align 8, !tbaa !10
  %9 = icmp eq i32 %8, 0
  br i1 %9, label %10, label %.thread

10:                                               ; preds = %7
  %11 = tail call ptr @__errno_location() #20
  store i32 0, ptr %11, align 4, !tbaa !131
  %12 = getelementptr inbounds nuw i8, ptr %0, i64 460
  %13 = load i32, ptr %12, align 4, !tbaa !230
  %.not = icmp eq i32 %13, 0
  br i1 %.not, label %ssl3_renegotiate_check.exit, label %14

14:                                               ; preds = %10
  %15 = load i32, ptr %0, align 8, !tbaa !10
  %16 = icmp eq i32 %15, 0
  br i1 %16, label %17, label %ssl3_renegotiate_check.exit

17:                                               ; preds = %14
  %18 = getelementptr inbounds nuw i8, ptr %0, i64 3160
  %19 = tail call i32 @RECORD_LAYER_read_pending(ptr noundef nonnull %18) #18
  %.not17.i = icmp eq i32 %19, 0
  br i1 %.not17.i, label %20, label %ssl3_renegotiate_check.exit

20:                                               ; preds = %17
  %21 = tail call i32 @RECORD_LAYER_write_pending(ptr noundef nonnull %18) #18
  %.not18.i = icmp eq i32 %21, 0
  br i1 %.not18.i, label %22, label %ssl3_renegotiate_check.exit

22:                                               ; preds = %20
  %23 = tail call i32 @SSL_in_init(ptr noundef nonnull %0) #18
  %.not20.i = icmp eq i32 %23, 0
  br i1 %.not20.i, label %24, label %ssl3_renegotiate_check.exit

24:                                               ; preds = %22
  tail call void @ossl_statem_set_renegotiate(ptr noundef nonnull %0) #18
  store i32 0, ptr %12, align 4, !tbaa !230
  %25 = getelementptr inbounds nuw i8, ptr %0, i64 468
  %26 = load i32, ptr %25, align 4, !tbaa !99
  %27 = add nsw i32 %26, 1
  store i32 %27, ptr %25, align 4, !tbaa !99
  %28 = getelementptr inbounds nuw i8, ptr %0, i64 464
  %29 = load i32, ptr %28, align 8, !tbaa !100
  %30 = add nsw i32 %29, 1
  store i32 %30, ptr %28, align 8, !tbaa !100
  br label %ssl3_renegotiate_check.exit

ssl3_renegotiate_check.exit:                      ; preds = %24, %22, %20, %17, %14, %10
  %31 = getelementptr inbounds nuw i8, ptr %0, i64 472
  store i32 1, ptr %31, align 8, !tbaa !232
  %32 = getelementptr inbounds nuw i8, ptr %0, i64 24
  %33 = load ptr, ptr %32, align 8, !tbaa !18
  %34 = getelementptr inbounds nuw i8, ptr %33, i64 128
  %35 = load ptr, ptr %34, align 8, !tbaa !229
  %36 = tail call i32 %35(ptr noundef nonnull %0, i8 noundef zeroext 23, ptr noundef null, ptr noundef %1, i64 noundef %2, i32 noundef %3, ptr noundef %4) #18
  %37 = icmp eq i32 %36, -1
  br i1 %37, label %38, label %46

38:                                               ; preds = %ssl3_renegotiate_check.exit
  %39 = load i32, ptr %31, align 8, !tbaa !232
  %40 = icmp eq i32 %39, 2
  br i1 %40, label %41, label %46

41:                                               ; preds = %38
  tail call void @ossl_statem_set_in_handshake(ptr noundef nonnull %0, i32 noundef 1) #18
  %42 = load ptr, ptr %32, align 8, !tbaa !18
  %43 = getelementptr inbounds nuw i8, ptr %42, i64 128
  %44 = load ptr, ptr %43, align 8, !tbaa !229
  %45 = tail call i32 %44(ptr noundef nonnull %0, i8 noundef zeroext 23, ptr noundef null, ptr noundef %1, i64 noundef %2, i32 noundef %3, ptr noundef %4) #18
  tail call void @ossl_statem_set_in_handshake(ptr noundef nonnull %0, i32 noundef 0) #18
  br label %.thread

46:                                               ; preds = %38, %ssl3_renegotiate_check.exit
  store i32 0, ptr %31, align 8, !tbaa !232
  br label %.thread

.thread:                                          ; preds = %5, %7, %41, %46
  %.0 = phi i32 [ %45, %41 ], [ %36, %46 ], [ 0, %7 ], [ 0, %5 ]
  ret i32 %.0
}